target datalayout = "e-m:e-p270:32:32-p271:32:32-p272:64:64-i64:64-i128:128-f80:128-n8:16:32:64-S128"
target triple = "x86_64-pc-linux-gnu"

%struct.Rwr_Node_t_ = type <{ i32, i32, i16, i16, i16, i32, [6 x i8], ptr, ptr, ptr }>
%struct.Rwr_Man_t_ = type { i32, ptr, ptr, ptr, ptr, ptr, ptr, ptr, ptr, ptr, ptr, ptr, i32, i32, i32, i32, i32, ptr, ptr, ptr, ptr, ptr, i32, i32, i32, i32, i32, [222 x i32], i32, i32, i32, i64, i64, i64, i64, i64, i64, i64 }

; Function Attrs: nounwind uwtable
define void @Rwr_GetBushVolume(ptr noundef %0, i32 noundef %1, ptr noundef %2, ptr noundef %3) #0 {
  %5 = alloca ptr, align 8
  %6 = alloca i32, align 4
  %7 = alloca ptr, align 8
  %8 = alloca ptr, align 8
  %9 = alloca ptr, align 8
  %10 = alloca i32, align 4
  %11 = alloca i32, align 4
  store ptr %0, ptr %5, align 8
  store i32 %1, ptr %6, align 4
  store ptr %2, ptr %7, align 8
  store ptr %3, ptr %8, align 8
  store i32 0, ptr %10, align 4
  store i32 0, ptr %11, align 4
  %12 = load ptr, ptr %5, align 8
  call void @Rwr_ManIncTravId(ptr noundef %12)
  %13 = load ptr, ptr %5, align 8
  %14 = getelementptr inbounds %struct.Rwr_Man_t_, ptr %13, i32 0, i32 9
  %15 = load ptr, ptr %14, align 8
  %16 = load i32, ptr %6, align 4
  %17 = sext i32 %16 to i64
  %18 = getelementptr inbounds ptr, ptr %15, i64 %17
  %19 = load ptr, ptr %18, align 8
  store ptr %19, ptr %9, align 8
  br label %20

20:                                               ; preds = %46, %4
  %21 = load ptr, ptr %9, align 8
  %22 = icmp ne ptr %21, null
  br i1 %22, label %23, label %50

23:                                               ; preds = %20
  %24 = load ptr, ptr %9, align 8
  %25 = getelementptr inbounds %struct.Rwr_Node_t_, ptr %24, i32 0, i32 5
  %26 = load i32, ptr %25, align 2
  %27 = and i32 %26, 65535
  %28 = load ptr, ptr %5, align 8
  %29 = getelementptr inbounds %struct.Rwr_Man_t_, ptr %28, i32 0, i32 1
  %30 = load ptr, ptr %29, align 8
  %31 = load ptr, ptr %9, align 8
  %32 = getelementptr inbounds %struct.Rwr_Node_t_, ptr %31, i32 0, i32 5
  %33 = load i32, ptr %32, align 2
  %34 = and i32 %33, 65535
  %35 = zext i32 %34 to i64
  %36 = getelementptr inbounds i16, ptr %30, i64 %35
  %37 = load i16, ptr %36, align 2
  %38 = zext i16 %37 to i32
  %39 = icmp ne i32 %27, %38
  br i1 %39, label %40, label %41

40:                                               ; preds = %23
  br label %46

41:                                               ; preds = %23
  %42 = load i32, ptr %11, align 4
  %43 = add nsw i32 %42, 1
  store i32 %43, ptr %11, align 4
  %44 = load ptr, ptr %5, align 8
  %45 = load ptr, ptr %9, align 8
  call void @Rwr_Trav2_rec(ptr noundef %44, ptr noundef %45, ptr noundef %10)
  br label %46

46:                                               ; preds = %41, %40
  %47 = load ptr, ptr %9, align 8
  %48 = getelementptr inbounds %struct.Rwr_Node_t_, ptr %47, i32 0, i32 9
  %49 = load ptr, ptr %48, align 8
  store ptr %49, ptr %9, align 8
  br label %20, !llvm.loop !4

50:                                               ; preds = %20
  %51 = load i32, ptr %10, align 4
  %52 = load ptr, ptr %7, align 8
  store i32 %51, ptr %52, align 4
  %53 = load i32, ptr %11, align 4
  %54 = load ptr, ptr %8, align 8
  store i32 %53, ptr %54, align 4
  ret void
}