; Function Attrs: nounwind uwtable
define void @Rwr_GetBushVolume(ptr noundef %0, i32 noundef %1, ptr noundef writeonly captures(none) %2, ptr noundef writeonly captures(none) %3) local_unnamed_addr #1 {
  %5 = alloca i32, align 4
  store i32 0, ptr %5, align 4
  tail call void @Rwr_ManIncTravId(ptr noundef %0) #7
  %6 = getelementptr inbounds nuw i8, ptr %0, i64 72
  %7 = load ptr, ptr %6, align 8
  %8 = sext i32 %1 to i64
  %9 = getelementptr inbounds ptr, ptr %7, i64 %8
  %.01315 = load ptr, ptr %9, align 8
  %.not16 = icmp eq ptr %.01315, null
  br i1 %.not16, label %._crit_edge, label %.lr.ph

.lr.ph:                                           ; preds = %4
  %10 = getelementptr inbounds nuw i8, ptr %0, i64 8
  br label %11

11:                                               ; preds = %.lr.ph, %22
  %.01318 = phi ptr [ %.01315, %.lr.ph ], [ %.013, %22 ]
  %.017 = phi i32 [ 0, %.lr.ph ], [ %.1, %22 ]
  %12 = getelementptr inbounds nuw i8, ptr %.01318, i64 14
  %13 = load i32, ptr %12, align 2
  %14 = and i32 %13, 65535
  %15 = load ptr, ptr %10, align 8
  %16 = zext nneg i32 %14 to i64
  %17 = getelementptr inbounds nuw i16, ptr %15, i64 %16
  %18 = load i16, ptr %17, align 2
  %19 = trunc i32 %13 to i16
  %.not14 = icmp eq i16 %18, %19
  br i1 %.not14, label %20, label %22

20:                                               ; preds = %11
  %21 = add nsw i32 %.017, 1
  call void @Rwr_Trav2_rec(ptr noundef nonnull %0, ptr noundef nonnull %.01318, ptr noundef nonnull %5)
  br label %22

22:                                               ; preds = %11, %20
  %.1 = phi i32 [ %.017, %11 ], [ %21, %20 ]
  %23 = getelementptr inbounds nuw i8, ptr %.01318, i64 40
  %.013 = load ptr, ptr %23, align 8
  %.not = icmp eq ptr %.013, null
  br i1 %.not, label %._crit_edge.loopexit, label %11, !llvm.loop !4

._crit_edge.loopexit:                             ; preds = %22
  %.pre = load i32, ptr %5, align 4
  br label %._crit_edge

._crit_edge:                                      ; preds = %._crit_edge.loopexit, %4
  %24 = phi i32 [ 0, %4 ], [ %.pre, %._crit_edge.loopexit ]
  %.0.lcssa = phi i32 [ 0, %4 ], [ %.1, %._crit_edge.loopexit ]
  store i32 %24, ptr %2, align 4
  store i32 %.0.lcssa, ptr %3, align 4
  ret void
}